(dp1
F1534773944.2242899
cnumpy.core.multiarray
scalar
p2
(cnumpy
dtype
p3
(S'i4'
I0
I1
tRp4
(I3
S'<'
NNNI-1
I-1
I0
tbS' \x00\x00\x00'
tRp5
sF1529299323.4864919
g2
(g4
S'\x08\x00\x00\x00'
tRp6
sF1534751445.780895
g2
(g4
S' \x00\x00\x00'
tRp7
s.